; Function Attrs: mustprogress nofree norecurse nosync nounwind willreturn memory(readwrite, inaccessiblemem: none) uwtable
define internal range(i32 0, 9) i32 @ctrl_set_byte_alignment(ptr nocapture noundef %0, ptr nocapture noundef %1) #7 {
  %3 = load i32, ptr %1, align 8
  %4 = icmp ult i32 %3, 41
  br i1 %4, label %5, label %11

5:                                                ; preds = %2
  %6 = getelementptr inbounds nuw i8, ptr %1, i64 16
  %7 = load ptr, ptr %6, align 8
  %8 = zext nneg i32 %3 to i64
  %9 = getelementptr i8, ptr %7, i64 %8
  %10 = add nuw nsw i32 %3, 8
  store i32 %10, ptr %1, align 8
  br label %15

11:                                               ; preds = %2
  %12 = getelementptr inbounds nuw i8, ptr %1, i64 8
  %13 = load ptr, ptr %12, align 8
  %14 = getelementptr i8, ptr %13, i64 8
  store ptr %14, ptr %12, align 8
  br label %15

15:                                               ; preds = %11, %5
  %16 = phi ptr [ %9, %5 ], [ %13, %11 ]
  %17 = load i32, ptr %16, align 4
  %.not = icmp eq i32 %17, 0
  br i1 %.not, label %21, label %18

18:                                               ; preds = %15
  %19 = add i32 %17, -32
  %or.cond = icmp ult i32 %19, 993
  %20 = tail call range(i32 1, 12) i32 @llvm.ctpop.i32(i32 %17)
  %.not17 = icmp ult i32 %20, 2
  %or.cond19 = select i1 %or.cond, i1 %.not17, i1 false
  br i1 %or.cond19, label %21, label %30

21:                                               ; preds = %18, %15
  %22 = getelementptr inbounds nuw i8, ptr %0, i64 440
  store i32 %17, ptr %22, align 8
  %23 = getelementptr inbounds nuw i8, ptr %0, i64 27120
  %24 = load ptr, ptr %23, align 8
  %.not18 = icmp eq ptr %24, null
  br i1 %.not18, label %30, label %25

25:                                               ; preds = %21
  %26 = getelementptr inbounds nuw i8, ptr %24, i64 32
  %27 = load ptr, ptr %26, align 8
  %28 = load ptr, ptr %27, align 8
  %29 = getelementptr inbounds i8, ptr %28, i64 49024
  store i32 %17, ptr %29, align 4
  br label %30

30:                                               ; preds = %21, %25, %18
  %.0 = phi i32 [ 8, %18 ], [ 0, %25 ], [ 0, %21 ]
  ret i32 %.0
}